; Function Attrs: null_pointer_is_valid sspstrong uwtable
define internal fastcc void @fCreateObjectError(ptr noundef nonnull %0, ptr noundef %1, ptr noundef %2) unnamed_addr #0 {
  %4 = alloca i8, align 1
  %5 = alloca i8, align 1
  %6 = alloca i32, align 4
  br label %7

7:                                                ; preds = %21, %3
  %.0 = phi i32 [ 3, %3 ], [ %.2, %21 ]
  %8 = tail call i32 @tvb_reported_length_remaining(ptr noundef nonnull %0, i32 noundef %.0)
  %9 = icmp sgt i32 %8, 0
  br i1 %9, label %10, label %22

10:                                               ; preds = %7
  %11 = tail call zeroext i8 @tvb_get_uint8(ptr noundef nonnull %0, i32 noundef %.0)
  %12 = lshr i8 %11, 4
  switch i8 %12, label %22 [
    i8 0, label %13
    i8 1, label %19
  ]

13:                                               ; preds = %10
  call void @llvm.lifetime.start.p0(i64 1, ptr nonnull %4) #6
  call void @llvm.lifetime.start.p0(i64 1, ptr nonnull %5) #6
  call void @llvm.lifetime.start.p0(i64 4, ptr nonnull %6) #6
  %14 = call fastcc i32 @fTagHeaderTree(ptr noundef nonnull %0, ptr noundef %1, ptr noundef %2, i32 noundef %.0, ptr noundef nonnull %5, ptr noundef nonnull %4, ptr noundef nonnull %6)
  %15 = add i32 %14, %.0
  %16 = tail call fastcc i32 @fError(ptr noundef nonnull %0, ptr noundef %1, ptr noundef %2, i32 noundef %15)
  %17 = call fastcc i32 @fTagHeaderTree(ptr noundef nonnull %0, ptr noundef %1, ptr noundef %2, i32 noundef %16, ptr noundef nonnull %5, ptr noundef nonnull %4, ptr noundef nonnull %6)
  %18 = add i32 %17, %16
  call void @llvm.lifetime.end.p0(i64 4, ptr nonnull %6) #6
  call void @llvm.lifetime.end.p0(i64 1, ptr nonnull %5) #6
  call void @llvm.lifetime.end.p0(i64 1, ptr nonnull %4) #6
  br label %21

19:                                               ; preds = %10
  %20 = tail call fastcc i32 @fUnsignedTag(ptr noundef %0, ptr noundef %1, ptr noundef %2, i32 noundef %.0, ptr noundef nonnull @.str.3809)
  br label %21

21:                                               ; preds = %19, %13
  %.2 = phi i32 [ %20, %19 ], [ %18, %13 ]
  %.not = icmp ugt i32 %.2, %.0
  br i1 %.not, label %7, label %22, !llvm.loop !168

22:                                               ; preds = %7, %21, %10
  ret void
}